target datalayout = "e-m:e-p270:32:32-p271:32:32-p272:64:64-i64:64-i128:128-f80:128-n8:16:32:64-S128"
target triple = "x86_64-pc-linux-gnu"

%struct._zval_struct = type { %union._zend_value, %union.anon, %union.anon.2 }
%union._zend_value = type { i64 }
%union.anon = type { i32 }
%union.anon.2 = type { i32 }
%struct._zend_execute_data = type { ptr, ptr, ptr, ptr, %struct._zval_struct, ptr, ptr, ptr, ptr }

; Function Attrs: nounwind uwtable
define hidden void @zif_pow(ptr noundef %0, ptr noundef %1) #0 {
  %3 = alloca ptr, align 8
  %4 = alloca ptr, align 8
  %5 = alloca ptr, align 8
  %6 = alloca i8, align 1
  %7 = alloca ptr, align 8
  %8 = alloca ptr, align 8
  %9 = alloca ptr, align 8
  %10 = alloca i8, align 1
  %11 = alloca ptr, align 8
  %12 = alloca ptr, align 8
  %13 = alloca ptr, align 8
  %14 = alloca ptr, align 8
  %15 = alloca i32, align 4
  %16 = alloca i32, align 4
  %17 = alloca i32, align 4
  %18 = alloca i32, align 4
  %19 = alloca i32, align 4
  %20 = alloca ptr, align 8
  %21 = alloca ptr, align 8
  %22 = alloca i32, align 4
  %23 = alloca ptr, align 8
  %24 = alloca i8, align 1
  %25 = alloca i8, align 1
  %26 = alloca i32, align 4
  store ptr %0, ptr %11, align 8
  store ptr %1, ptr %12, align 8
  br label %27

27:                                               ; preds = %2
  store i32 0, ptr %15, align 4
  store i32 2, ptr %16, align 4
  store i32 2, ptr %17, align 4
  %28 = load ptr, ptr %11, align 8
  %29 = getelementptr inbounds %struct._zend_execute_data, ptr %28, i32 0, i32 4
  %30 = getelementptr inbounds %struct._zval_struct, ptr %29, i32 0, i32 2
  %31 = load i32, ptr %30, align 4
  store i32 %31, ptr %18, align 4
  store i32 0, ptr %19, align 4
  store ptr null, ptr %21, align 8
  store i32 0, ptr %22, align 4
  store ptr null, ptr %23, align 8
  store i8 0, ptr %24, align 1
  store i8 0, ptr %25, align 1
  store i32 0, ptr %26, align 4
  br label %32

32:                                               ; preds = %27
  %33 = load i32, ptr %18, align 4
  %34 = load i32, ptr %16, align 4
  %35 = icmp ult i32 %33, %34
  %36 = xor i1 %35, true
  %37 = xor i1 %36, true
  %38 = zext i1 %37 to i32
  %39 = sext i32 %38 to i64
  %40 = icmp ne i64 %39, 0
  br i1 %40, label %50, label %41

41:                                               ; preds = %32
  %42 = load i32, ptr %18, align 4
  %43 = load i32, ptr %17, align 4
  %44 = icmp ugt i32 %42, %43
  %45 = xor i1 %44, true
  %46 = xor i1 %45, true
  %47 = zext i1 %46 to i32
  %48 = sext i32 %47 to i64
  %49 = icmp ne i64 %48, 0
  br i1 %49, label %50, label %53

50:                                               ; preds = %41, %32
  %51 = load i32, ptr %16, align 4
  %52 = load i32, ptr %17, align 4
  call void @zend_wrong_parameters_count_error(i32 noundef %51, i32 noundef %52)
  store i32 1, ptr %26, align 4
  br label %174

53:                                               ; preds = %41
  %54 = load ptr, ptr %11, align 8
  %55 = getelementptr inbounds %struct._zval_struct, ptr %54, i64 4
  store ptr %55, ptr %20, align 8
  %56 = load i32, ptr %19, align 4
  %57 = add i32 %56, 1
  store i32 %57, ptr %19, align 4
  %58 = load i32, ptr %19, align 4
  %59 = load i32, ptr %16, align 4
  %60 = icmp ule i32 %58, %59
  br i1 %60, label %66, label %61

61:                                               ; preds = %53
  %62 = load i8, ptr %25, align 1
  %63 = trunc i8 %62 to i1
  %64 = zext i1 %63 to i32
  %65 = icmp eq i32 %64, 1
  br label %66

66:                                               ; preds = %61, %53
  %67 = phi i1 [ true, %53 ], [ %65, %61 ]
  call void @llvm.assume(i1 %67)
  %68 = load i32, ptr %19, align 4
  %69 = load i32, ptr %16, align 4
  %70 = icmp ugt i32 %68, %69
  br i1 %70, label %76, label %71

71:                                               ; preds = %66
  %72 = load i8, ptr %25, align 1
  %73 = trunc i8 %72 to i1
  %74 = zext i1 %73 to i32
  %75 = icmp eq i32 %74, 0
  br label %76

76:                                               ; preds = %71, %66
  %77 = phi i1 [ true, %66 ], [ %75, %71 ]
  call void @llvm.assume(i1 %77)
  %78 = load i8, ptr %25, align 1
  %79 = trunc i8 %78 to i1
  br i1 %79, label %80, label %91

80:                                               ; preds = %76
  %81 = load i32, ptr %19, align 4
  %82 = load i32, ptr %18, align 4
  %83 = icmp ugt i32 %81, %82
  %84 = xor i1 %83, true
  %85 = xor i1 %84, true
  %86 = zext i1 %85 to i32
  %87 = sext i32 %86 to i64
  %88 = icmp ne i64 %87, 0
  br i1 %88, label %89, label %90

89:                                               ; preds = %80
  br label %174

90:                                               ; preds = %80
  br label %91

91:                                               ; preds = %90, %76
  %92 = load ptr, ptr %20, align 8
  %93 = getelementptr inbounds %struct._zval_struct, ptr %92, i32 1
  store ptr %93, ptr %20, align 8
  %94 = load ptr, ptr %20, align 8
  store ptr %94, ptr %21, align 8
  %95 = load ptr, ptr %21, align 8
  store ptr %95, ptr %4, align 8
  store ptr %13, ptr %5, align 8
  store i8 0, ptr %6, align 1
  %96 = load i8, ptr %6, align 1
  %97 = trunc i8 %96 to i1
  br i1 %97, label %98, label %106

98:                                               ; preds = %91
  %99 = load ptr, ptr %4, align 8
  store ptr %99, ptr %3, align 8
  %100 = load ptr, ptr %3, align 8
  %101 = getelementptr inbounds %struct._zval_struct, ptr %100, i32 0, i32 1
  %102 = load i8, ptr %101, align 8
  %103 = zext i8 %102 to i32
  %104 = icmp eq i32 %103, 1
  br i1 %104, label %105, label %106

105:                                              ; preds = %98
  br label %108

106:                                              ; preds = %98, %91
  %107 = load ptr, ptr %4, align 8
  br label %108

108:                                              ; preds = %106, %105
  %109 = phi ptr [ null, %105 ], [ %107, %106 ]
  %110 = load ptr, ptr %5, align 8
  store ptr %109, ptr %110, align 8
  %111 = load i32, ptr %19, align 4
  %112 = add i32 %111, 1
  store i32 %112, ptr %19, align 4
  %113 = load i32, ptr %19, align 4
  %114 = load i32, ptr %16, align 4
  %115 = icmp ule i32 %113, %114
  br i1 %115, label %121, label %116

116:                                              ; preds = %108
  %117 = load i8, ptr %25, align 1
  %118 = trunc i8 %117 to i1
  %119 = zext i1 %118 to i32
  %120 = icmp eq i32 %119, 1
  br label %121

121:                                              ; preds = %116, %108
  %122 = phi i1 [ true, %108 ], [ %120, %116 ]
  call void @llvm.assume(i1 %122)
  %123 = load i32, ptr %19, align 4
  %124 = load i32, ptr %16, align 4
  %125 = icmp ugt i32 %123, %124
  br i1 %125, label %131, label %126

126:                                              ; preds = %121
  %127 = load i8, ptr %25, align 1
  %128 = trunc i8 %127 to i1
  %129 = zext i1 %128 to i32
  %130 = icmp eq i32 %129, 0
  br label %131

131:                                              ; preds = %126, %121
  %132 = phi i1 [ true, %121 ], [ %130, %126 ]
  call void @llvm.assume(i1 %132)
  %133 = load i8, ptr %25, align 1
  %134 = trunc i8 %133 to i1
  br i1 %134, label %135, label %146

135:                                              ; preds = %131
  %136 = load i32, ptr %19, align 4
  %137 = load i32, ptr %18, align 4
  %138 = icmp ugt i32 %136, %137
  %139 = xor i1 %138, true
  %140 = xor i1 %139, true
  %141 = zext i1 %140 to i32
  %142 = sext i32 %141 to i64
  %143 = icmp ne i64 %142, 0
  br i1 %143, label %144, label %145

144:                                              ; preds = %135
  br label %174

145:                                              ; preds = %135
  br label %146

146:                                              ; preds = %145, %131
  %147 = load ptr, ptr %20, align 8
  %148 = getelementptr inbounds %struct._zval_struct, ptr %147, i32 1
  store ptr %148, ptr %20, align 8
  %149 = load ptr, ptr %20, align 8
  store ptr %149, ptr %21, align 8
  %150 = load ptr, ptr %21, align 8
  store ptr %150, ptr %8, align 8
  store ptr %14, ptr %9, align 8
  store i8 0, ptr %10, align 1
  %151 = load i8, ptr %10, align 1
  %152 = trunc i8 %151 to i1
  br i1 %152, label %153, label %161

153:                                              ; preds = %146
  %154 = load ptr, ptr %8, align 8
  store ptr %154, ptr %7, align 8
  %155 = load ptr, ptr %7, align 8
  %156 = getelementptr inbounds %struct._zval_struct, ptr %155, i32 0, i32 1
  %157 = load i8, ptr %156, align 8
  %158 = zext i8 %157 to i32
  %159 = icmp eq i32 %158, 1
  br i1 %159, label %160, label %161

160:                                              ; preds = %153
  br label %163

161:                                              ; preds = %153, %146
  %162 = load ptr, ptr %8, align 8
  br label %163

163:                                              ; preds = %161, %160
  %164 = phi ptr [ null, %160 ], [ %162, %161 ]
  %165 = load ptr, ptr %9, align 8
  store ptr %164, ptr %165, align 8
  %166 = load i32, ptr %19, align 4
  %167 = load i32, ptr %17, align 4
  %168 = icmp eq i32 %166, %167
  br i1 %168, label %172, label %169

169:                                              ; preds = %163
  %170 = load i32, ptr %17, align 4
  %171 = icmp eq i32 %170, -1
  br label %172

172:                                              ; preds = %169, %163
  %173 = phi i1 [ true, %163 ], [ %171, %169 ]
  call void @llvm.assume(i1 %173)
  br label %174

174:                                              ; preds = %172, %144, %89, %50
  %175 = load i32, ptr %26, align 4
  %176 = icmp ne i32 %175, 0
  %177 = xor i1 %176, true
  %178 = xor i1 %177, true
  %179 = zext i1 %178 to i32
  %180 = sext i32 %179 to i64
  %181 = icmp ne i64 %180, 0
  br i1 %181, label %182, label %188

182:                                              ; preds = %174
  %183 = load i32, ptr %26, align 4
  %184 = load i32, ptr %19, align 4
  %185 = load ptr, ptr %23, align 8
  %186 = load i32, ptr %22, align 4
  %187 = load ptr, ptr %21, align 8
  call void @zend_wrong_parameter_error(i32 noundef %183, i32 noundef %184, ptr noundef %185, i32 noundef %186, ptr noundef %187)
  br label %194

188:                                              ; preds = %174
  br label %189

189:                                              ; preds = %188
  %190 = load ptr, ptr %12, align 8
  %191 = load ptr, ptr %13, align 8
  %192 = load ptr, ptr %14, align 8
  %193 = call i32 @pow_function(ptr noundef %190, ptr noundef %191, ptr noundef %192)
  br label %194

194:                                              ; preds = %189, %182
  ret void
}